target datalayout = "e-m:e-p270:32:32-p271:32:32-p272:64:64-i64:64-i128:128-f80:128-n8:16:32:64-S128"
target triple = "x86_64-pc-linux-gnu"

%struct.archive_write = type { %struct.archive, i32, i64, i64, ptr, i64, ptr, ptr, ptr, ptr, ptr, i32, i32, ptr, ptr, ptr, ptr, ptr, ptr, ptr, ptr, ptr, ptr, ptr, ptr, ptr, ptr }
%struct.archive = type { i32, i32, ptr, i32, ptr, i32, i32, ptr, %struct.archive_string, ptr, i32, i32, ptr, ptr, i64, i64, i64, i8, i64 }
%struct.archive_string = type { ptr, i64, i64 }
%struct._7zip = type { i32, i64, ptr, i64, i64, i64, i64, i64, [3 x i64], i64, i64, i64, i32, i32, i32, i32, i32, i32, %struct.la_zstream, %struct.coder, ptr, [61440 x i8], i64, %struct.anon, %struct.anon, %struct.archive_rb_tree }
%struct.la_zstream = type { ptr, i64, i64, ptr, i64, i64, i32, ptr, i32, ptr, ptr, ptr }
%struct.coder = type { i32, i64, ptr }
%struct.anon = type { ptr, ptr }
%struct.archive_rb_tree = type { ptr, ptr }

; Function Attrs: nounwind uwtable
define internal i64 @_7z_write_data(ptr noundef %0, ptr noundef %1, i64 noundef %2) #0 {
  %4 = alloca i64, align 8
  %5 = alloca ptr, align 8
  %6 = alloca ptr, align 8
  %7 = alloca i64, align 8
  %8 = alloca ptr, align 8
  %9 = alloca i64, align 8
  store ptr %0, ptr %5, align 8
  store ptr %1, ptr %6, align 8
  store i64 %2, ptr %7, align 8
  %10 = load ptr, ptr %5, align 8
  %11 = getelementptr inbounds %struct.archive_write, ptr %10, i32 0, i32 15
  %12 = load ptr, ptr %11, align 8
  store ptr %12, ptr %8, align 8
  %13 = load i64, ptr %7, align 8
  %14 = load ptr, ptr %8, align 8
  %15 = getelementptr inbounds %struct._7zip, ptr %14, i32 0, i32 11
  %16 = load i64, ptr %15, align 8
  %17 = icmp ugt i64 %13, %16
  br i1 %17, label %18, label %22

18:                                               ; preds = %3
  %19 = load ptr, ptr %8, align 8
  %20 = getelementptr inbounds %struct._7zip, ptr %19, i32 0, i32 11
  %21 = load i64, ptr %20, align 8
  store i64 %21, ptr %7, align 8
  br label %22

22:                                               ; preds = %18, %3
  %23 = load i64, ptr %7, align 8
  %24 = icmp eq i64 %23, 0
  br i1 %24, label %30, label %25

25:                                               ; preds = %22
  %26 = load ptr, ptr %8, align 8
  %27 = getelementptr inbounds %struct._7zip, ptr %26, i32 0, i32 2
  %28 = load ptr, ptr %27, align 8
  %29 = icmp eq ptr %28, null
  br i1 %29, label %30, label %31

30:                                               ; preds = %25, %22
  store i64 0, ptr %4, align 8
  br label %58

31:                                               ; preds = %25
  %32 = load ptr, ptr %5, align 8
  %33 = load ptr, ptr %6, align 8
  %34 = load i64, ptr %7, align 8
  %35 = call i64 @compress_out(ptr noundef %32, ptr noundef %33, i64 noundef %34, i32 noundef 1)
  store i64 %35, ptr %9, align 8
  %36 = load i64, ptr %9, align 8
  %37 = icmp slt i64 %36, 0
  br i1 %37, label %38, label %40

38:                                               ; preds = %31
  %39 = load i64, ptr %9, align 8
  store i64 %39, ptr %4, align 8
  br label %58

40:                                               ; preds = %31
  %41 = load ptr, ptr %8, align 8
  %42 = getelementptr inbounds %struct._7zip, ptr %41, i32 0, i32 12
  %43 = load i32, ptr %42, align 8
  %44 = zext i32 %43 to i64
  %45 = load ptr, ptr %6, align 8
  %46 = load i64, ptr %9, align 8
  %47 = trunc i64 %46 to i32
  %48 = call i64 @cm_zlib_crc32(i64 noundef %44, ptr noundef %45, i32 noundef %47)
  %49 = trunc i64 %48 to i32
  %50 = load ptr, ptr %8, align 8
  %51 = getelementptr inbounds %struct._7zip, ptr %50, i32 0, i32 12
  store i32 %49, ptr %51, align 8
  %52 = load i64, ptr %9, align 8
  %53 = load ptr, ptr %8, align 8
  %54 = getelementptr inbounds %struct._7zip, ptr %53, i32 0, i32 11
  %55 = load i64, ptr %54, align 8
  %56 = sub i64 %55, %52
  store i64 %56, ptr %54, align 8
  %57 = load i64, ptr %9, align 8
  store i64 %57, ptr %4, align 8
  br label %58

58:                                               ; preds = %40, %38, %30
  %59 = load i64, ptr %4, align 8
  ret i64 %59
}