; Function Attrs: nounwind uwtable
define internal noundef i64 @_7z_write_data(ptr noundef %0, ptr noundef %1, i64 noundef %2) #0 {
  %4 = getelementptr inbounds nuw i8, ptr %0, i64 248
  %5 = load ptr, ptr %4, align 8
  %6 = getelementptr inbounds nuw i8, ptr %5, i64 104
  %7 = load i64, ptr %6, align 8
  %spec.select = tail call i64 @llvm.umin.i64(i64 %2, i64 %7)
  %8 = icmp eq i64 %spec.select, 0
  br i1 %8, label %25, label %9

9:                                                ; preds = %3
  %10 = getelementptr inbounds nuw i8, ptr %5, i64 16
  %11 = load ptr, ptr %10, align 8
  %12 = icmp eq ptr %11, null
  br i1 %12, label %25, label %13

13:                                               ; preds = %9
  %14 = tail call fastcc i64 @compress_out(ptr noundef nonnull %0, ptr noundef %1, i64 noundef %spec.select, i32 noundef 1)
  %15 = icmp slt i64 %14, 0
  br i1 %15, label %25, label %16

16:                                               ; preds = %13
  %17 = getelementptr inbounds nuw i8, ptr %5, i64 112
  %18 = load i32, ptr %17, align 8
  %19 = zext i32 %18 to i64
  %20 = trunc i64 %14 to i32
  %21 = tail call i64 @cm_zlib_crc32(i64 noundef %19, ptr noundef %1, i32 noundef %20) #18
  %22 = trunc i64 %21 to i32
  store i32 %22, ptr %17, align 8
  %23 = load i64, ptr %6, align 8
  %24 = sub i64 %23, %14
  store i64 %24, ptr %6, align 8
  br label %25

25:                                               ; preds = %13, %3, %9, %16
  %.0 = phi i64 [ %14, %16 ], [ 0, %9 ], [ 0, %3 ], [ %14, %13 ]
  ret i64 %.0
}